target datalayout = "e-m:e-p270:32:32-p271:32:32-p272:64:64-i64:64-i128:128-f80:128-n8:16:32:64-S128"
target triple = "x86_64-pc-linux-gnu"

%struct.s_mmfile = type { ptr, i64 }
%struct.stat = type { i64, i64, i64, i32, i32, i32, i32, i64, i64, i64, i64, %struct.timespec, %struct.timespec, %struct.timespec, [3 x i64] }
%struct.timespec = type { i64, i64 }

@.str = private unnamed_addr constant [18 x i8] c"Could not stat %s\00", align 1
@.str.1 = private unnamed_addr constant [3 x i8] c"rb\00", align 1
@.str.2 = private unnamed_addr constant [18 x i8] c"Could not open %s\00", align 1
@.str.3 = private unnamed_addr constant [18 x i8] c"Could not read %s\00", align 1
@.str.18 = private unnamed_addr constant [29 x i8] c"Cannot handle files this big\00", align 1

; Function Attrs: inlinehint nounwind uwtable
define internal i64 @xsize_t(i64 noundef %0) #6 {
  %2 = alloca i64, align 8
  store i64 %0, ptr %2, align 8, !tbaa !18
  %3 = load i64, ptr %2, align 8, !tbaa !18
  %4 = icmp slt i64 %3, 0
  br i1 %4, label %8, label %5

5:                                                ; preds = %1
  %6 = load i64, ptr %2, align 8, !tbaa !18
  %7 = icmp ugt i64 %6, -1
  br i1 %7, label %8, label %9

8:                                                ; preds = %5, %1
  call void (ptr, ...) @die(ptr noundef @.str.18) #11
  unreachable

9:                                                ; preds = %5
  %10 = load i64, ptr %2, align 8, !tbaa !18
  ret i64 %10
}

; Function Attrs: inlinehint nounwind uwtable
define internal i32 @const_error() #6 {
  ret i32 -1
}

; Function Attrs: nounwind uwtable
define dso_local i32 @read_mmfile(ptr noundef %0, ptr noundef %1) #0 {
  %3 = alloca i32, align 4
  %4 = alloca ptr, align 8
  %5 = alloca ptr, align 8
  %6 = alloca %struct.stat, align 8
  %7 = alloca ptr, align 8
  %8 = alloca i64, align 8
  %9 = alloca i32, align 4
  store ptr %0, ptr %4, align 8, !tbaa !4
  store ptr %1, ptr %5, align 8, !tbaa !16
  call void @llvm.lifetime.start.p0(i64 144, ptr %6) #9
  call void @llvm.lifetime.start.p0(i64 8, ptr %7) #9
  call void @llvm.lifetime.start.p0(i64 8, ptr %8) #9
  %10 = load ptr, ptr %5, align 8, !tbaa !16
  %11 = call i32 @stat64(ptr noundef %10, ptr noundef %6) #9
  %12 = icmp ne i32 %11, 0
  br i1 %12, label %13, label %17

13:                                               ; preds = %2
  %14 = load ptr, ptr %5, align 8, !tbaa !16
  %15 = call i32 (ptr, ...) @error_errno(ptr noundef @.str, ptr noundef %14)
  %16 = call i32 @const_error()
  store i32 %16, ptr %3, align 4
  store i32 1, ptr %9, align 4
  br label %61

17:                                               ; preds = %2
  %18 = load ptr, ptr %5, align 8, !tbaa !16
  %19 = call ptr @git_fopen(ptr noundef %18, ptr noundef @.str.1)
  store ptr %19, ptr %7, align 8, !tbaa !52
  %20 = icmp ne ptr %19, null
  br i1 %20, label %25, label %21

21:                                               ; preds = %17
  %22 = load ptr, ptr %5, align 8, !tbaa !16
  %23 = call i32 (ptr, ...) @error_errno(ptr noundef @.str.2, ptr noundef %22)
  %24 = call i32 @const_error()
  store i32 %24, ptr %3, align 4
  store i32 1, ptr %9, align 4
  br label %61

25:                                               ; preds = %17
  %26 = getelementptr inbounds nuw %struct.stat, ptr %6, i32 0, i32 8
  %27 = load i64, ptr %26, align 8, !tbaa !54
  %28 = call i64 @xsize_t(i64 noundef %27)
  store i64 %28, ptr %8, align 8, !tbaa !18
  %29 = load i64, ptr %8, align 8, !tbaa !18
  %30 = icmp ne i64 %29, 0
  br i1 %30, label %31, label %33

31:                                               ; preds = %25
  %32 = load i64, ptr %8, align 8, !tbaa !18
  br label %34

33:                                               ; preds = %25
  br label %34

34:                                               ; preds = %33, %31
  %35 = phi i64 [ %32, %31 ], [ 1, %33 ]
  %36 = call ptr @xmalloc(i64 noundef %35)
  %37 = load ptr, ptr %4, align 8, !tbaa !4
  %38 = getelementptr inbounds nuw %struct.s_mmfile, ptr %37, i32 0, i32 0
  store ptr %36, ptr %38, align 8, !tbaa !27
  %39 = load i64, ptr %8, align 8, !tbaa !18
  %40 = icmp ne i64 %39, 0
  br i1 %40, label %41, label %55

41:                                               ; preds = %34
  %42 = load ptr, ptr %4, align 8, !tbaa !4
  %43 = getelementptr inbounds nuw %struct.s_mmfile, ptr %42, i32 0, i32 0
  %44 = load ptr, ptr %43, align 8, !tbaa !27
  %45 = load i64, ptr %8, align 8, !tbaa !18
  %46 = load ptr, ptr %7, align 8, !tbaa !52
  %47 = call i64 @fread(ptr noundef %44, i64 noundef %45, i64 noundef 1, ptr noundef %46)
  %48 = icmp ne i64 %47, 1
  br i1 %48, label %49, label %55

49:                                               ; preds = %41
  %50 = load ptr, ptr %7, align 8, !tbaa !52
  %51 = call i32 @fclose(ptr noundef %50)
  %52 = load ptr, ptr %5, align 8, !tbaa !16
  %53 = call i32 (ptr, ...) @error(ptr noundef @.str.3, ptr noundef %52)
  %54 = call i32 @const_error()
  store i32 %54, ptr %3, align 4
  store i32 1, ptr %9, align 4
  br label %61

55:                                               ; preds = %41, %34
  %56 = load ptr, ptr %7, align 8, !tbaa !52
  %57 = call i32 @fclose(ptr noundef %56)
  %58 = load i64, ptr %8, align 8, !tbaa !18
  %59 = load ptr, ptr %4, align 8, !tbaa !4
  %60 = getelementptr inbounds nuw %struct.s_mmfile, ptr %59, i32 0, i32 1
  store i64 %58, ptr %60, align 8, !tbaa !20
  store i32 0, ptr %3, align 4
  store i32 1, ptr %9, align 4
  br label %61

61:                                               ; preds = %55, %49, %21, %13
  call void @llvm.lifetime.end.p0(i64 8, ptr %8) #9
  call void @llvm.lifetime.end.p0(i64 8, ptr %7) #9
  call void @llvm.lifetime.end.p0(i64 144, ptr %6) #9
  %62 = load i32, ptr %3, align 4
  ret i32 %62
}