; Function Attrs: nounwind uwtable
define dso_local range(i32 -1, 1) i32 @read_mmfile(ptr noundef writeonly captures(none) %0, ptr noundef %1) local_unnamed_addr #0 {
  %3 = alloca %struct.stat, align 8
  call void @llvm.lifetime.start.p0(i64 144, ptr nonnull %3) #13
  %4 = call i32 @stat64(ptr noundef %1, ptr noundef nonnull %3) #13
  %.not = icmp eq i32 %4, 0
  br i1 %.not, label %7, label %5

5:                                                ; preds = %2
  %6 = tail call i32 (ptr, ...) @error_errno(ptr noundef nonnull @.str, ptr noundef %1) #13
  br label %26

7:                                                ; preds = %2
  %8 = tail call ptr @git_fopen(ptr noundef %1, ptr noundef nonnull @.str.1) #13
  %.not18 = icmp eq ptr %8, null
  br i1 %.not18, label %9, label %11

9:                                                ; preds = %7
  %10 = tail call i32 (ptr, ...) @error_errno(ptr noundef nonnull @.str.2, ptr noundef %1) #13
  br label %26

11:                                               ; preds = %7
  %12 = getelementptr inbounds nuw i8, ptr %3, i64 48
  %13 = load i64, ptr %12, align 8, !tbaa !40
  %14 = icmp slt i64 %13, 0
  br i1 %14, label %15, label %xsize_t.exit

15:                                               ; preds = %11
  tail call void (ptr, ...) @die(ptr noundef nonnull @.str.18) #14
  unreachable

xsize_t.exit:                                     ; preds = %11
  %.not19 = icmp eq i64 %13, 0
  %16 = tail call i64 @llvm.umax.i64(i64 %13, i64 1)
  %17 = tail call ptr @xmalloc(i64 noundef %16) #13
  store ptr %17, ptr %0, align 8, !tbaa !17
  br i1 %.not19, label %23, label %18

18:                                               ; preds = %xsize_t.exit
  %19 = tail call i64 @fread(ptr noundef %17, i64 noundef %13, i64 noundef 1, ptr noundef nonnull %8)
  %.not20 = icmp eq i64 %19, 1
  br i1 %.not20, label %23, label %20

20:                                               ; preds = %18
  %21 = tail call i32 @fclose(ptr noundef nonnull %8)
  %22 = tail call i32 (ptr, ...) @error(ptr noundef nonnull @.str.3, ptr noundef %1) #13
  br label %26

23:                                               ; preds = %18, %xsize_t.exit
  %24 = tail call i32 @fclose(ptr noundef nonnull %8)
  %25 = getelementptr inbounds nuw i8, ptr %0, i64 8
  store i64 %13, ptr %25, align 8, !tbaa !12
  br label %26

26:                                               ; preds = %23, %20, %9, %5
  %.0 = phi i32 [ -1, %5 ], [ -1, %20 ], [ 0, %23 ], [ -1, %9 ]
  call void @llvm.lifetime.end.p0(i64 144, ptr nonnull %3) #13
  ret i32 %.0
}